; Function Attrs: nofree nounwind uwtable
define internal fastcc void @png_size(ptr noundef captures(none) initializes((72, 76)) %0) unnamed_addr #5 {
  %2 = getelementptr inbounds nuw i8, ptr %0, i64 72
  store i32 0, ptr %2, align 8
  %3 = getelementptr inbounds nuw i8, ptr %0, i64 32
  %4 = load ptr, ptr %3, align 8
  %5 = tail call i32 @fseek(ptr noundef %4, i64 noundef 16, i32 noundef 0)
  %6 = load ptr, ptr %3, align 8
  br label %7

7:                                                ; preds = %10, %1
  %.015.i = phi i64 [ 0, %1 ], [ %13, %10 ]
  %.01114.i = phi i32 [ 0, %1 ], [ %12, %10 ]
  %8 = tail call i32 @fgetc(ptr noundef %6)
  %9 = tail call i32 @feof(ptr noundef %6) #21
  %.not.i = icmp eq i32 %9, 0
  br i1 %.not.i, label %10, label %get_int_msb_first.exit.thread

10:                                               ; preds = %7
  %11 = shl i32 %.01114.i, 8
  %12 = or i32 %8, %11
  %13 = add nuw nsw i64 %.015.i, 1
  %exitcond.not.i = icmp eq i64 %13, 4
  br i1 %exitcond.not.i, label %14, label %7

14:                                               ; preds = %10
  %15 = icmp slt i32 %12, 0
  br i1 %15, label %get_int_msb_first.exit.thread, label %get_int_msb_first.exit

get_int_msb_first.exit:                           ; preds = %14
  %16 = load ptr, ptr %3, align 8
  br label %17

17:                                               ; preds = %20, %get_int_msb_first.exit
  %.015.i6 = phi i64 [ 0, %get_int_msb_first.exit ], [ %23, %20 ]
  %.01114.i7 = phi i32 [ 0, %get_int_msb_first.exit ], [ %22, %20 ]
  %18 = tail call i32 @fgetc(ptr noundef %16)
  %19 = tail call i32 @feof(ptr noundef %16) #21
  %.not.i8 = icmp eq i32 %19, 0
  br i1 %.not.i8, label %20, label %get_int_msb_first.exit.thread

20:                                               ; preds = %17
  %21 = shl i32 %.01114.i7, 8
  %22 = or i32 %18, %21
  %23 = add nuw nsw i64 %.015.i6, 1
  %exitcond.not.i10 = icmp eq i64 %23, 4
  br i1 %exitcond.not.i10, label %24, label %17

24:                                               ; preds = %20
  %25 = icmp slt i32 %22, 0
  br i1 %25, label %get_int_msb_first.exit.thread, label %get_int_msb_first.exit11

get_int_msb_first.exit11:                         ; preds = %24
  %26 = getelementptr inbounds nuw i8, ptr %0, i64 64
  store i32 %12, ptr %26, align 8
  %27 = getelementptr inbounds nuw i8, ptr %0, i64 68
  store i32 %22, ptr %27, align 4
  br label %get_int_msb_first.exit.thread

get_int_msb_first.exit.thread:                    ; preds = %7, %17, %24, %14, %get_int_msb_first.exit11
  ret void
}